target datalayout = "e-m:e-p270:32:32-p271:32:32-p272:64:64-i64:64-i128:128-f80:128-n8:16:32:64-S128"
target triple = "x86_64-pc-linux-gnu"

%struct._lv_roller_t = type { %struct._lv_obj_t, i32, i32, i32, i32, i8 }
%struct._lv_obj_t = type { ptr, ptr, ptr, ptr, ptr, %struct.lv_area_t, i32, i16, i16 }
%struct.lv_area_t = type { i32, i32, i32, i32 }

; Function Attrs: nounwind uwtable
define internal ptr @get_label(ptr noundef %0) #0 {
  %2 = alloca ptr, align 8
  store ptr %0, ptr %2, align 8, !tbaa !8
  %3 = load ptr, ptr %2, align 8, !tbaa !8
  %4 = call ptr @lv_obj_get_child(ptr noundef %3, i32 noundef 0)
  ret ptr %4
}

; Function Attrs: nounwind uwtable
define void @lv_roller_get_selected_str(ptr noundef %0, ptr noundef %1, i32 noundef %2) #0 {
  %4 = alloca ptr, align 8
  %5 = alloca ptr, align 8
  %6 = alloca i32, align 4
  %7 = alloca ptr, align 8
  %8 = alloca ptr, align 8
  %9 = alloca i32, align 4
  %10 = alloca i32, align 4
  %11 = alloca ptr, align 8
  %12 = alloca i64, align 8
  %13 = alloca i32, align 4
  store ptr %0, ptr %4, align 8, !tbaa !8
  store ptr %1, ptr %5, align 8, !tbaa !39
  store i32 %2, ptr %6, align 4, !tbaa !24
  br label %14

14:                                               ; preds = %3
  %15 = load ptr, ptr %4, align 8, !tbaa !8
  %16 = icmp ne ptr %15, null
  br i1 %16, label %21, label %17

17:                                               ; preds = %14
  br label %18

18:                                               ; preds = %17
  br label %19

19:                                               ; preds = %18
  br label %20

20:                                               ; preds = %19, %20
  br label %20

21:                                               ; preds = %14
  br label %22

22:                                               ; preds = %21
  call void @llvm.lifetime.start.p0(i64 8, ptr %7) #6
  %23 = load ptr, ptr %4, align 8, !tbaa !8
  store ptr %23, ptr %7, align 8, !tbaa !10
  call void @llvm.lifetime.start.p0(i64 8, ptr %8) #6
  %24 = load ptr, ptr %4, align 8, !tbaa !8
  %25 = call ptr @get_label(ptr noundef %24)
  store ptr %25, ptr %8, align 8, !tbaa !8
  call void @llvm.lifetime.start.p0(i64 4, ptr %9) #6
  call void @llvm.lifetime.start.p0(i64 4, ptr %10) #6
  store i32 0, ptr %10, align 4, !tbaa !24
  call void @llvm.lifetime.start.p0(i64 8, ptr %11) #6
  %26 = load ptr, ptr %8, align 8, !tbaa !8
  %27 = call ptr @lv_label_get_text(ptr noundef %26)
  store ptr %27, ptr %11, align 8, !tbaa !39
  call void @llvm.lifetime.start.p0(i64 8, ptr %12) #6
  %28 = load ptr, ptr %11, align 8, !tbaa !39
  %29 = call i64 @lv_strlen(ptr noundef %28)
  store i64 %29, ptr %12, align 8, !tbaa !47
  store i32 0, ptr %9, align 4, !tbaa !24
  br label %30

30:                                               ; preds = %55, %22
  %31 = load i32, ptr %9, align 4, !tbaa !24
  %32 = zext i32 %31 to i64
  %33 = load i64, ptr %12, align 8, !tbaa !47
  %34 = icmp ult i64 %32, %33
  br i1 %34, label %35, label %41

35:                                               ; preds = %30
  %36 = load i32, ptr %10, align 4, !tbaa !24
  %37 = load ptr, ptr %7, align 8, !tbaa !10
  %38 = getelementptr inbounds nuw %struct._lv_roller_t, ptr %37, i32 0, i32 2
  %39 = load i32, ptr %38, align 4, !tbaa !20
  %40 = icmp ne i32 %36, %39
  br label %41

41:                                               ; preds = %35, %30
  %42 = phi i1 [ false, %30 ], [ %40, %35 ]
  br i1 %42, label %43, label %58

43:                                               ; preds = %41
  %44 = load ptr, ptr %11, align 8, !tbaa !39
  %45 = load i32, ptr %9, align 4, !tbaa !24
  %46 = zext i32 %45 to i64
  %47 = getelementptr inbounds nuw i8, ptr %44, i64 %46
  %48 = load i8, ptr %47, align 1, !tbaa !41
  %49 = sext i8 %48 to i32
  %50 = icmp eq i32 %49, 10
  br i1 %50, label %51, label %54

51:                                               ; preds = %43
  %52 = load i32, ptr %10, align 4, !tbaa !24
  %53 = add i32 %52, 1
  store i32 %53, ptr %10, align 4, !tbaa !24
  br label %54

54:                                               ; preds = %51, %43
  br label %55

55:                                               ; preds = %54
  %56 = load i32, ptr %9, align 4, !tbaa !24
  %57 = add i32 %56, 1
  store i32 %57, ptr %9, align 4, !tbaa !24
  br label %30, !llvm.loop !51

58:                                               ; preds = %41
  call void @llvm.lifetime.start.p0(i64 4, ptr %13) #6
  store i32 0, ptr %13, align 4, !tbaa !24
  br label %59

59:                                               ; preds = %96, %58
  %60 = load i32, ptr %9, align 4, !tbaa !24
  %61 = zext i32 %60 to i64
  %62 = load i64, ptr %12, align 8, !tbaa !47
  %63 = icmp ult i64 %61, %62
  br i1 %63, label %64, label %72

64:                                               ; preds = %59
  %65 = load ptr, ptr %11, align 8, !tbaa !39
  %66 = load i32, ptr %9, align 4, !tbaa !24
  %67 = zext i32 %66 to i64
  %68 = getelementptr inbounds nuw i8, ptr %65, i64 %67
  %69 = load i8, ptr %68, align 1, !tbaa !41
  %70 = sext i8 %69 to i32
  %71 = icmp ne i32 %70, 10
  br label %72

72:                                               ; preds = %64, %59
  %73 = phi i1 [ false, %59 ], [ %71, %64 ]
  br i1 %73, label %74, label %101

74:                                               ; preds = %72
  %75 = load i32, ptr %6, align 4, !tbaa !24
  %76 = icmp ne i32 %75, 0
  br i1 %76, label %77, label %86

77:                                               ; preds = %74
  %78 = load i32, ptr %13, align 4, !tbaa !24
  %79 = load i32, ptr %6, align 4, !tbaa !24
  %80 = sub i32 %79, 1
  %81 = icmp uge i32 %78, %80
  br i1 %81, label %82, label %86

82:                                               ; preds = %77
  br label %83

83:                                               ; preds = %82
  br label %84

84:                                               ; preds = %83
  br label %85

85:                                               ; preds = %84
  br label %101

86:                                               ; preds = %77, %74
  %87 = load ptr, ptr %11, align 8, !tbaa !39
  %88 = load i32, ptr %9, align 4, !tbaa !24
  %89 = zext i32 %88 to i64
  %90 = getelementptr inbounds nuw i8, ptr %87, i64 %89
  %91 = load i8, ptr %90, align 1, !tbaa !41
  %92 = load ptr, ptr %5, align 8, !tbaa !39
  %93 = load i32, ptr %13, align 4, !tbaa !24
  %94 = zext i32 %93 to i64
  %95 = getelementptr inbounds nuw i8, ptr %92, i64 %94
  store i8 %91, ptr %95, align 1, !tbaa !41
  br label %96

96:                                               ; preds = %86
  %97 = load i32, ptr %13, align 4, !tbaa !24
  %98 = add i32 %97, 1
  store i32 %98, ptr %13, align 4, !tbaa !24
  %99 = load i32, ptr %9, align 4, !tbaa !24
  %100 = add i32 %99, 1
  store i32 %100, ptr %9, align 4, !tbaa !24
  br label %59, !llvm.loop !52

101:                                              ; preds = %85, %72
  %102 = load ptr, ptr %5, align 8, !tbaa !39
  %103 = load i32, ptr %13, align 4, !tbaa !24
  %104 = zext i32 %103 to i64
  %105 = getelementptr inbounds nuw i8, ptr %102, i64 %104
  store i8 0, ptr %105, align 1, !tbaa !41
  call void @llvm.lifetime.end.p0(i64 4, ptr %13) #6
  call void @llvm.lifetime.end.p0(i64 8, ptr %12) #6
  call void @llvm.lifetime.end.p0(i64 8, ptr %11) #6
  call void @llvm.lifetime.end.p0(i64 4, ptr %10) #6
  call void @llvm.lifetime.end.p0(i64 4, ptr %9) #6
  call void @llvm.lifetime.end.p0(i64 8, ptr %8) #6
  call void @llvm.lifetime.end.p0(i64 8, ptr %7) #6
  ret void
}