; Function Attrs: nounwind uwtable
define void @lv_roller_get_selected_str(ptr noundef %0, ptr noundef writeonly captures(none) %1, i32 noundef %2) local_unnamed_addr #0 {
  %.not = icmp eq ptr %0, null
  br i1 %.not, label %.preheader, label %4

.preheader:                                       ; preds = %3, %.preheader
  br label %.preheader

4:                                                ; preds = %3
  %5 = tail call ptr @lv_obj_get_child(ptr noundef nonnull %0, i32 noundef 0) #6
  %6 = tail call ptr @lv_label_get_text(ptr noundef %5) #6
  %7 = tail call i64 @lv_strlen(ptr noundef %6) #6
  %.not53 = icmp eq i64 %7, 0
  br i1 %.not53, label %.critedge, label %.lr.ph

.lr.ph:                                           ; preds = %4
  %8 = getelementptr inbounds nuw i8, ptr %0, i64 68
  %9 = load i32, ptr %8, align 4, !tbaa !16
  br label %10

10:                                               ; preds = %.lr.ph, %12
  %11 = phi i64 [ 0, %.lr.ph ], [ %18, %12 ]
  %.02941 = phi i32 [ 0, %.lr.ph ], [ %17, %12 ]
  %.03040 = phi i32 [ 0, %.lr.ph ], [ %spec.select, %12 ]
  %.not36 = icmp eq i32 %.03040, %9
  br i1 %.not36, label %.critedge, label %12

12:                                               ; preds = %10
  %13 = getelementptr inbounds nuw i8, ptr %6, i64 %11
  %14 = load i8, ptr %13, align 1, !tbaa !18
  %15 = icmp eq i8 %14, 10
  %16 = zext i1 %15 to i32
  %spec.select = add i32 %.03040, %16
  %17 = add i32 %.02941, 1
  %18 = zext i32 %17 to i64
  %19 = icmp ugt i64 %7, %18
  br i1 %19, label %10, label %.critedge, !llvm.loop !61

.critedge:                                        ; preds = %10, %12, %4
  %.029.lcssa = phi i32 [ 0, %4 ], [ %17, %12 ], [ %.02941, %10 ]
  %20 = zext i32 %.029.lcssa to i64
  %21 = icmp ugt i64 %7, %20
  br i1 %21, label %.lr.ph46, label %.critedge2

.lr.ph46:                                         ; preds = %.critedge
  %.not38 = icmp eq i32 %2, 0
  br i1 %.not38, label %.lr.ph46.split.us, label %.lr.ph46.split.preheader

.lr.ph46.split.preheader:                         ; preds = %.lr.ph46
  %22 = add i32 %2, -1
  %23 = zext i32 %22 to i64
  br label %.lr.ph46.split

.lr.ph46.split.us:                                ; preds = %.lr.ph46, %27
  %24 = phi i64 [ %32, %27 ], [ %20, %.lr.ph46 ]
  %.045.us = phi i32 [ %30, %27 ], [ 0, %.lr.ph46 ]
  %.144.us = phi i32 [ %31, %27 ], [ %.029.lcssa, %.lr.ph46 ]
  %25 = getelementptr inbounds nuw i8, ptr %6, i64 %24
  %26 = load i8, ptr %25, align 1, !tbaa !18
  %.not37.us = icmp eq i8 %26, 10
  br i1 %.not37.us, label %.critedge2, label %27

27:                                               ; preds = %.lr.ph46.split.us
  %28 = zext i32 %.045.us to i64
  %29 = getelementptr inbounds nuw i8, ptr %1, i64 %28
  store i8 %26, ptr %29, align 1, !tbaa !18
  %30 = add i32 %.045.us, 1
  %31 = add i32 %.144.us, 1
  %32 = zext i32 %31 to i64
  %33 = icmp ugt i64 %7, %32
  br i1 %33, label %.lr.ph46.split.us, label %.critedge2, !llvm.loop !62

.lr.ph46.split:                                   ; preds = %.lr.ph46.split.preheader, %37
  %indvars.iv = phi i64 [ 0, %.lr.ph46.split.preheader ], [ %indvars.iv.next, %37 ]
  %34 = phi i64 [ %20, %.lr.ph46.split.preheader ], [ %40, %37 ]
  %.144 = phi i32 [ %.029.lcssa, %.lr.ph46.split.preheader ], [ %39, %37 ]
  %35 = getelementptr inbounds nuw i8, ptr %6, i64 %34
  %36 = load i8, ptr %35, align 1, !tbaa !18
  %.not37 = icmp ne i8 %36, 10
  %.not39 = icmp samesign ult i64 %indvars.iv, %23
  %or.cond = select i1 %.not37, i1 %.not39, i1 false
  br i1 %or.cond, label %37, label %.critedge2.loopexit54

37:                                               ; preds = %.lr.ph46.split
  %38 = getelementptr inbounds nuw i8, ptr %1, i64 %indvars.iv
  store i8 %36, ptr %38, align 1, !tbaa !18
  %indvars.iv.next = add nuw nsw i64 %indvars.iv, 1
  %39 = add i32 %.144, 1
  %40 = zext i32 %39 to i64
  %41 = icmp ugt i64 %7, %40
  br i1 %41, label %.lr.ph46.split, label %.critedge2.loopexit54, !llvm.loop !62

.critedge2.loopexit54:                            ; preds = %37, %.lr.ph46.split
  %.0.lcssa.ph55.in = phi i64 [ %indvars.iv, %.lr.ph46.split ], [ %indvars.iv.next, %37 ]
  %.0.lcssa.ph55 = trunc i64 %.0.lcssa.ph55.in to i32
  br label %.critedge2

.critedge2:                                       ; preds = %.lr.ph46.split.us, %27, %.critedge2.loopexit54, %.critedge
  %.0.lcssa = phi i32 [ 0, %.critedge ], [ %.0.lcssa.ph55, %.critedge2.loopexit54 ], [ %30, %27 ], [ %.045.us, %.lr.ph46.split.us ]
  %42 = zext i32 %.0.lcssa to i64
  %43 = getelementptr inbounds nuw i8, ptr %1, i64 %42
  store i8 0, ptr %43, align 1, !tbaa !18
  ret void
}